; Function Attrs: nofree norecurse nosync nounwind memory(read, inaccessiblemem: none) uwtable
define i32 @Saig_StrSimCountMatchedFlops(ptr noundef readonly captures(none) %0) local_unnamed_addr #0 {
  %2 = getelementptr i8, ptr %0, i64 104
  %.val11 = load i32, ptr %2, align 8, !tbaa !40
  %3 = icmp sgt i32 %.val11, 0
  br i1 %3, label %.lr.ph, label %.critedge

.lr.ph:                                           ; preds = %1
  %4 = getelementptr i8, ptr %0, i64 256
  %.val10 = load ptr, ptr %4, align 8, !tbaa !36
  %.not.i = icmp eq ptr %.val10, null
  br i1 %.not.i, label %.critedge, label %.lr.ph.split

.lr.ph.split:                                     ; preds = %.lr.ph
  %5 = getelementptr i8, ptr %0, i64 108
  %6 = getelementptr inbounds nuw i8, ptr %0, i64 16
  %7 = load ptr, ptr %6, align 8, !tbaa !45
  %8 = getelementptr i8, ptr %7, i64 8
  %.val = load ptr, ptr %8, align 8, !tbaa !34
  %.val12 = load i32, ptr %5, align 4, !tbaa !46
  %9 = sext i32 %.val12 to i64
  %wide.trip.count = zext nneg i32 %.val11 to i64
  %invariant.gep = getelementptr ptr, ptr %.val, i64 %9
  br label %Aig_ObjRepr.exit

Aig_ObjRepr.exit:                                 ; preds = %.lr.ph.split, %Aig_ObjRepr.exit
  %indvars.iv = phi i64 [ 0, %.lr.ph.split ], [ %indvars.iv.next, %Aig_ObjRepr.exit ]
  %.014 = phi i32 [ 0, %.lr.ph.split ], [ %spec.select, %Aig_ObjRepr.exit ]
  %gep = getelementptr ptr, ptr %invariant.gep, i64 %indvars.iv
  %10 = load ptr, ptr %gep, align 8, !tbaa !35
  %11 = getelementptr inbounds nuw i8, ptr %10, i64 36
  %12 = load i32, ptr %11, align 4, !tbaa !37
  %13 = sext i32 %12 to i64
  %14 = getelementptr inbounds ptr, ptr %.val10, i64 %13
  %15 = load ptr, ptr %14, align 8, !tbaa !38
  %16 = icmp ne ptr %15, null
  %17 = zext i1 %16 to i32
  %spec.select = add nuw nsw i32 %.014, %17
  %indvars.iv.next = add nuw nsw i64 %indvars.iv, 1
  %exitcond.not = icmp eq i64 %indvars.iv.next, %wide.trip.count
  br i1 %exitcond.not, label %.critedge, label %Aig_ObjRepr.exit, !llvm.loop !60

.critedge:                                        ; preds = %Aig_ObjRepr.exit, %.lr.ph, %1
  %.0.lcssa = phi i32 [ 0, %1 ], [ 0, %.lr.ph ], [ %spec.select, %Aig_ObjRepr.exit ]
  ret i32 %.0.lcssa
}